; Function Attrs: mustprogress uwtable
define noundef i32 @_ZNK6casadi4Qrqp8init_memEPv(ptr noundef nonnull align 8 dereferenceable(1660) %0, ptr noundef %1) unnamed_addr #3 align 2 {
  %3 = tail call noundef i32 @_ZNK6casadi5Conic8init_memEPv(ptr noundef nonnull align 8 dereferenceable(1472) %0, ptr noundef %1)
  %.not = icmp eq i32 %3, 0
  br i1 %.not, label %4, label %6

4:                                                ; preds = %2
  %5 = getelementptr inbounds i8, ptr %1, i64 528
  store ptr @.str.33, ptr %5, align 8
  br label %6

6:                                                ; preds = %2, %4
  %.0 = phi i32 [ 0, %4 ], [ 1, %2 ]
  ret i32 %.0
}